; Function Attrs: mustprogress uwtable
define hidden noundef nonnull align 8 dereferenceable(8) ptr @_ZNK15psort_user_decl7displayERSo(ptr nocapture noundef nonnull readonly align 8 dereferenceable(56) %this, ptr noundef nonnull align 8 dereferenceable(8) %out) unnamed_addr #3 align 2 {
entry:
  %call = tail call noundef nonnull align 8 dereferenceable(8) ptr @_ZStlsISt11char_traitsIcEERSt13basic_ostreamIcT_ES5_PKc(ptr noundef nonnull align 8 dereferenceable(8) %out, ptr noundef nonnull @.str.4)
  %m_name = getelementptr inbounds i8, ptr %this, i64 24
  %agg.tmp.sroa.0.0.copyload = load ptr, ptr %m_name, align 8
  %0 = ptrtoint ptr %agg.tmp.sroa.0.0.copyload to i64
  %and.i = and i64 %0, 7
  %cmp.i = icmp eq i64 %and.i, 0
  br i1 %cmp.i, label %if.then.i, label %if.else5.i

if.then.i:                                        ; preds = %entry
  %tobool.not.i = icmp eq ptr %agg.tmp.sroa.0.0.copyload, null
  br i1 %tobool.not.i, label %if.else.i, label %if.then2.i

if.then2.i:                                       ; preds = %if.then.i
  %call.i = tail call noundef nonnull align 8 dereferenceable(8) ptr @_ZStlsISt11char_traitsIcEERSt13basic_ostreamIcT_ES5_PKc(ptr noundef nonnull align 8 dereferenceable(8) %call, ptr noundef nonnull %agg.tmp.sroa.0.0.copyload)
  br label %_ZlsRSo6symbol.exit

if.else.i:                                        ; preds = %if.then.i
  %call4.i = tail call noundef nonnull align 8 dereferenceable(8) ptr @_ZStlsISt11char_traitsIcEERSt13basic_ostreamIcT_ES5_PKc(ptr noundef nonnull align 8 dereferenceable(8) %call, ptr noundef nonnull @.str.22)
  br label %_ZlsRSo6symbol.exit

if.else5.i:                                       ; preds = %entry
  %call6.i = tail call noundef nonnull align 8 dereferenceable(8) ptr @_ZStlsISt11char_traitsIcEERSt13basic_ostreamIcT_ES5_PKc(ptr noundef nonnull align 8 dereferenceable(8) %call, ptr noundef nonnull @.str.23)
  %shr.i = lshr i64 %0, 3
  %conv.i = trunc i64 %shr.i to i32
  %call8.i = tail call noundef nonnull align 8 dereferenceable(8) ptr @_ZNSolsEi(ptr noundef nonnull align 8 dereferenceable(8) %call6.i, i32 noundef %conv.i)
  br label %_ZlsRSo6symbol.exit

_ZlsRSo6symbol.exit:                              ; preds = %if.then2.i, %if.else.i, %if.else5.i
  %m_num_params = getelementptr inbounds i8, ptr %this, i64 12
  %1 = load i32, ptr %m_num_params, align 4
  %cmp.not.i = icmp eq i32 %1, 0
  br i1 %cmp.not.i, label %_Z17display_sort_argsRSoj.exit, label %for.body.preheader.i

for.body.preheader.i:                             ; preds = %_ZlsRSo6symbol.exit
  %call.i4 = tail call noundef nonnull align 8 dereferenceable(8) ptr @_ZStlsISt11char_traitsIcEERSt13basic_ostreamIcT_ES5_PKc(ptr noundef nonnull align 8 dereferenceable(8) %out, ptr noundef nonnull @.str)
  br label %for.body.i

for.body.i:                                       ; preds = %if.end5.i, %for.body.preheader.i
  %i.010.i = phi i32 [ %inc.i, %if.end5.i ], [ 0, %for.body.preheader.i ]
  %cmp2.not.i = icmp eq i32 %i.010.i, 0
  br i1 %cmp2.not.i, label %if.end5.i, label %if.then3.i

if.then3.i:                                       ; preds = %for.body.i
  %call4.i5 = tail call noundef nonnull align 8 dereferenceable(8) ptr @_ZStlsISt11char_traitsIcEERSt13basic_ostreamIcT_ES5_PKc(ptr noundef nonnull align 8 dereferenceable(8) %out, ptr noundef nonnull @.str.1)
  br label %if.end5.i

if.end5.i:                                        ; preds = %if.then3.i, %for.body.i
  %call6.i6 = tail call noundef nonnull align 8 dereferenceable(8) ptr @_ZStlsISt11char_traitsIcEERSt13basic_ostreamIcT_ES5_PKc(ptr noundef nonnull align 8 dereferenceable(8) %out, ptr noundef nonnull @.str.2)
  %call7.i = tail call noundef nonnull align 8 dereferenceable(8) ptr @_ZNSolsEj(ptr noundef nonnull align 8 dereferenceable(8) %call6.i6, i32 noundef %i.010.i)
  %inc.i = add nuw i32 %i.010.i, 1
  %exitcond.not.i = icmp eq i32 %inc.i, %1
  br i1 %exitcond.not.i, label %if.then9.i, label %for.body.i, !llvm.loop !17

if.then9.i:                                       ; preds = %if.end5.i
  %call10.i = tail call noundef nonnull align 8 dereferenceable(8) ptr @_ZStlsISt11char_traitsIcEERSt13basic_ostreamIcT_ES5_PKc(ptr noundef nonnull align 8 dereferenceable(8) %out, ptr noundef nonnull @.str.3)
  br label %_Z17display_sort_argsRSoj.exit

_Z17display_sort_argsRSoj.exit:                   ; preds = %_ZlsRSo6symbol.exit, %if.then9.i
  %m_def = getelementptr inbounds i8, ptr %this, i64 48
  %2 = load ptr, ptr %m_def, align 8
  %tobool.not = icmp eq ptr %2, null
  br i1 %tobool.not, label %if.end, label %if.then

if.then:                                          ; preds = %_Z17display_sort_argsRSoj.exit
  %vtable = load ptr, ptr %2, align 8
  %vfn = getelementptr inbounds i8, ptr %vtable, i64 48
  %3 = load ptr, ptr %vfn, align 8
  %call4 = tail call noundef nonnull align 8 dereferenceable(8) ptr %3(ptr noundef nonnull align 8 dereferenceable(20) %2, ptr noundef nonnull align 8 dereferenceable(8) %out)
  br label %if.end

if.end:                                           ; preds = %if.then, %_Z17display_sort_argsRSoj.exit
  %call5 = tail call noundef nonnull align 8 dereferenceable(8) ptr @_ZStlsISt11char_traitsIcEERSt13basic_ostreamIcT_ES5_PKc(ptr noundef nonnull align 8 dereferenceable(8) %out, ptr noundef nonnull @.str.5)
  ret ptr %call5
}